(dp0
S'Chitral'
p1
S'2700000'
p2
sS'Mridul'
p3
S'1700000'
p4
s.(dp0
S'a '
p1
S'6563'
p2
sS'b'
p3
S'5666'
p4
s.(dp0
S'sasa'
p1
S'2332'
p2
sS'awsd'
p3
S'2223'
p4
s.(dp0
S'asa'
p1
S'5001'
p2
sS'saa'
p3
S'4000'
p4
s.(dp0
S'adf'
p1
S'9999'
p2
sS'asd'
p3
S'522'
p4
s.