(i__main__
school
p0
(dp1
S'grno'
p2
I12345
sS'name'
p3
S'ABC'
p4
sb.(i__main__
school
p0
(dp1
S'grno'
p2
I67891
sS'name'
p3
S'XYZ'
p4
sb.(i__main__
school
p0
(dp1
S'grno'
p2
I14785
sS'name'
p3
S'QWERTY'
p4
sb.